target datalayout = "e-m:e-p270:32:32-p271:32:32-p272:64:64-i64:64-i128:128-f80:128-n8:16:32:64-S128"
target triple = "x86_64-pc-linux-gnu"

%class.VM_Operation = type { ptr, ptr }
%class.VM_DeoptimizeFrame = type <{ %class.VM_Operation, ptr, ptr, i32, [4 x i8] }>

; Function Attrs: mustprogress nounwind uwtable
define hidden void @_ZN18VM_DeoptimizeFrame4doitEv(ptr noundef nonnull align 8 dereferenceable(36) %0) unnamed_addr #1 align 2 {
  %2 = alloca ptr, align 8
  store ptr %0, ptr %2, align 8
  %3 = load ptr, ptr %2, align 8
  %4 = getelementptr inbounds %class.VM_DeoptimizeFrame, ptr %3, i32 0, i32 1
  %5 = load ptr, ptr %4, align 8
  %6 = getelementptr inbounds %class.VM_DeoptimizeFrame, ptr %3, i32 0, i32 2
  %7 = load ptr, ptr %6, align 8
  %8 = getelementptr inbounds %class.VM_DeoptimizeFrame, ptr %3, i32 0, i32 3
  %9 = load i32, ptr %8, align 8
  call void @_ZN14Deoptimization25deoptimize_frame_internalEP10JavaThreadPlNS_11DeoptReasonE(ptr noundef %5, ptr noundef %7, i32 noundef %9)
  ret void
}