; Function Attrs: mustprogress nounwind uwtable
define hidden void @_ZN18VM_DeoptimizeFrame4doitEv(ptr nocapture noundef nonnull readonly align 8 dereferenceable(36) %0) unnamed_addr #1 align 2 {
  %2 = getelementptr inbounds i8, ptr %0, i64 16
  %3 = load ptr, ptr %2, align 8
  %4 = getelementptr inbounds i8, ptr %0, i64 24
  %5 = load ptr, ptr %4, align 8
  %6 = getelementptr inbounds i8, ptr %0, i64 32
  %7 = load i32, ptr %6, align 8
  tail call void @_ZN14Deoptimization25deoptimize_frame_internalEP10JavaThreadPlNS_11DeoptReasonE(ptr noundef %3, ptr noundef %5, i32 noundef %7) #10
  ret void
}